; Function Attrs: mustprogress uwtable
define void @_ZN2cv12ppf_match_3d6Pose3D10appendPoseERNS_4MatxIdLi4ELi4EEE(ptr noundef nonnull align 8 dereferenceable(232) %0, ptr noundef nonnull readonly align 8 captures(none) dereferenceable(128) %1) local_unnamed_addr #3 align 2 {
  %3 = alloca %"class.cv::Matx", align 8
  %4 = alloca %"class.cv::Matx.0", align 8
  call void @llvm.lifetime.start.p0(i64 72, ptr nonnull %3) #26
  call void @llvm.memset.p0.i64(ptr noundef nonnull align 8 dereferenceable(72) %3, i8 0, i64 72, i1 false), !tbaa !3
  call void @llvm.lifetime.start.p0(i64 128, ptr nonnull %4) #26
  %5 = getelementptr inbounds nuw i8, ptr %0, i64 40
  tail call void @llvm.experimental.noalias.scope.decl(metadata !62)
  br label %.preheader19.i.i

.preheader19.i.i:                                 ; preds = %7, %2
  %indvars.iv29.i.i = phi i64 [ 0, %2 ], [ %indvars.iv.next30.i.i, %7 ]
  %6 = shl nuw nsw i64 %indvars.iv29.i.i, 2
  br label %.preheader.i.i

.preheader.i.i:                                   ; preds = %8, %.preheader19.i.i
  %indvars.iv25.i.i = phi i64 [ 0, %.preheader19.i.i ], [ %indvars.iv.next26.i.i, %8 ]
  br label %11

7:                                                ; preds = %8
  %indvars.iv.next30.i.i = add nuw nsw i64 %indvars.iv29.i.i, 1
  %exitcond32.not.i.i = icmp eq i64 %indvars.iv.next30.i.i, 4
  br i1 %exitcond32.not.i.i, label %_ZN2cvmlIdLi4ELi4ELi4EEENS_4MatxIT_XT0_EXT1_EEERKNS1_IS2_XT0_EXT2_EEERKNS1_IS2_XT2_EXT1_EEE.exit, label %.preheader19.i.i, !llvm.loop !65

8:                                                ; preds = %11
  %9 = add nuw nsw i64 %indvars.iv25.i.i, %6
  %10 = getelementptr inbounds nuw [16 x double], ptr %4, i64 0, i64 %9
  store double %19, ptr %10, align 8, !tbaa !3, !alias.scope !62
  %indvars.iv.next26.i.i = add nuw nsw i64 %indvars.iv25.i.i, 1
  %exitcond28.not.i.i = icmp eq i64 %indvars.iv.next26.i.i, 4
  br i1 %exitcond28.not.i.i, label %7, label %.preheader.i.i, !llvm.loop !66

11:                                               ; preds = %11, %.preheader.i.i
  %indvars.iv.i.i = phi i64 [ 0, %.preheader.i.i ], [ %indvars.iv.next.i.i, %11 ]
  %.01620.i.i = phi double [ 0.000000e+00, %.preheader.i.i ], [ %19, %11 ]
  %12 = add nuw nsw i64 %indvars.iv.i.i, %6
  %13 = getelementptr inbounds nuw [16 x double], ptr %1, i64 0, i64 %12
  %14 = load double, ptr %13, align 8, !tbaa !3, !noalias !62
  %15 = shl nuw nsw i64 %indvars.iv.i.i, 2
  %16 = add nuw nsw i64 %15, %indvars.iv25.i.i
  %17 = getelementptr inbounds nuw [16 x double], ptr %5, i64 0, i64 %16
  %18 = load double, ptr %17, align 8, !tbaa !3, !noalias !62
  %19 = tail call double @llvm.fmuladd.f64(double %14, double %18, double %.01620.i.i)
  %indvars.iv.next.i.i = add nuw nsw i64 %indvars.iv.i.i, 1
  %exitcond.not.i.i = icmp eq i64 %indvars.iv.next.i.i, 4
  br i1 %exitcond.not.i.i, label %8, label %11, !llvm.loop !67

_ZN2cvmlIdLi4ELi4ELi4EEENS_4MatxIT_XT0_EXT1_EEERKNS1_IS2_XT0_EXT2_EEERKNS1_IS2_XT2_EXT1_EEE.exit: ; preds = %7
  %20 = getelementptr inbounds nuw i8, ptr %0, i64 176
  call fastcc void @_ZN2cv12ppf_match_3dL8poseToRTERKNS_4MatxIdLi4ELi4EEERNS1_IdLi3ELi3EEERNS_3VecIdLi3EEE(ptr noundef nonnull align 8 dereferenceable(128) %4, ptr noundef nonnull align 8 dereferenceable(72) %3, ptr noundef nonnull align 8 dereferenceable(24) %20)
  br label %21

21:                                               ; preds = %21, %_ZN2cvmlIdLi4ELi4ELi4EEENS_4MatxIT_XT0_EXT1_EEERKNS1_IS2_XT0_EXT2_EEERKNS1_IS2_XT2_EXT1_EEE.exit
  %indvars.iv.i = phi i64 [ 0, %_ZN2cvmlIdLi4ELi4ELi4EEENS_4MatxIT_XT0_EXT1_EEERKNS1_IS2_XT0_EXT2_EEERKNS1_IS2_XT2_EXT1_EEE.exit ], [ %indvars.iv.next.i, %21 ]
  %.0610.i = phi double [ 0.000000e+00, %_ZN2cvmlIdLi4ELi4ELi4EEENS_4MatxIT_XT0_EXT1_EEERKNS1_IS2_XT0_EXT2_EEERKNS1_IS2_XT2_EXT1_EEE.exit ], [ %25, %21 ]
  %22 = shl nuw nsw i64 %indvars.iv.i, 2
  %23 = getelementptr inbounds nuw [9 x double], ptr %3, i64 0, i64 %22
  %24 = load double, ptr %23, align 8, !tbaa !3
  %25 = fadd double %.0610.i, %24
  %indvars.iv.next.i = add nuw nsw i64 %indvars.iv.i, 1
  %exitcond.not.i = icmp eq i64 %indvars.iv.next.i, 3
  br i1 %exitcond.not.i, label %_ZN2cvL5traceIdLi3ELi3EEEdRKNS_4MatxIT_XT0_EXT1_EEE.exit, label %21, !llvm.loop !9

_ZN2cvL5traceIdLi3ELi3EEEdRKNS_4MatxIT_XT0_EXT1_EEE.exit: ; preds = %21
  %26 = fadd double %25, -3.000000e+00
  %27 = call double @llvm.fabs.f64(double %26)
  %28 = fcmp ugt double %27, 0x3E80000000000000
  br i1 %28, label %29, label %37

29:                                               ; preds = %_ZN2cvL5traceIdLi3ELi3EEEdRKNS_4MatxIT_XT0_EXT1_EEE.exit
  %30 = fadd double %25, 1.000000e+00
  %31 = call double @llvm.fabs.f64(double %30)
  %32 = fcmp ugt double %31, 0x3E80000000000000
  br i1 %32, label %33, label %37

33:                                               ; preds = %29
  %34 = fadd double %25, -1.000000e+00
  %35 = fmul double %34, 5.000000e-01
  %36 = call double @acos(double noundef %35) #26, !tbaa !11
  br label %37

37:                                               ; preds = %29, %_ZN2cvL5traceIdLi3ELi3EEEdRKNS_4MatxIT_XT0_EXT1_EEE.exit, %33
  %.sink = phi double [ %36, %33 ], [ 0.000000e+00, %_ZN2cvL5traceIdLi3ELi3EEEdRKNS_4MatxIT_XT0_EXT1_EEE.exit ], [ 0x400921FB54442D18, %29 ]
  %38 = getelementptr inbounds nuw i8, ptr %0, i64 168
  store double %.sink, ptr %38, align 8, !tbaa !13
  %39 = getelementptr inbounds nuw i8, ptr %0, i64 200
  call fastcc void @_ZN2cv12ppf_match_3dL9dcmToQuatERNS_4MatxIdLi3ELi3EEERNS_3VecIdLi4EEE(ptr noundef nonnull align 8 dereferenceable(72) %3, ptr noundef nonnull align 8 dereferenceable(32) %39)
  call void @llvm.memcpy.p0.p0.i64(ptr noundef nonnull align 8 dereferenceable(128) %5, ptr noundef nonnull align 8 dereferenceable(128) %4, i64 128, i1 false), !tbaa.struct !7
  call void @llvm.lifetime.end.p0(i64 128, ptr nonnull %4) #26
  call void @llvm.lifetime.end.p0(i64 72, ptr nonnull %3) #26
  ret void
}